; Function Attrs: nounwind uwtable
define hidden noalias ptr @mi_heap_malloc_aligned_at(ptr noundef %0, i64 noundef %1, i64 noundef %2, i64 noundef %3) local_unnamed_addr #0 {
  %5 = tail call range(i64 0, 65) i64 @llvm.ctpop.i64(i64 range(i64 1, 0) %2)
  %or.cond.not.i = icmp eq i64 %5, 1
  br i1 %or.cond.not.i, label %6, label %mi_heap_malloc_zero_aligned_at.exit, !prof !3

6:                                                ; preds = %4
  %7 = icmp ult i64 %1, 1025
  %8 = icmp ule i64 %2, %1
  %9 = and i1 %7, %8
  br i1 %9, label %10, label %.thread.i, !prof !4

10:                                               ; preds = %6
  %11 = add nuw nsw i64 %1, 7
  %12 = lshr i64 %11, 3
  %13 = getelementptr inbounds nuw i8, ptr %0, i64 232
  %14 = getelementptr inbounds nuw [129 x ptr], ptr %13, i64 0, i64 %12
  %15 = load ptr, ptr %14, align 8, !tbaa !5
  %16 = getelementptr inbounds nuw i8, ptr %15, i64 16
  %17 = load ptr, ptr %16, align 8, !tbaa !10
  %.not.i = icmp eq ptr %17, null
  br i1 %.not.i, label %.thread.i, label %18, !prof !17

18:                                               ; preds = %10
  %19 = add i64 %2, -1
  %20 = ptrtoint ptr %17 to i64
  %21 = add i64 %3, %20
  %22 = and i64 %21, %19
  %.not36.i = icmp eq i64 %22, 0
  br i1 %.not36.i, label %23, label %.thread.i, !prof !4

23:                                               ; preds = %18
  %24 = tail call ptr @_mi_page_malloc(ptr noundef nonnull %0, ptr noundef nonnull %15, i64 noundef %1) #8
  br label %mi_heap_malloc_zero_aligned_at.exit

.thread.i:                                        ; preds = %18, %10, %6
  %25 = tail call fastcc ptr @mi_heap_malloc_zero_aligned_at_generic(ptr noundef %0, i64 noundef %1, i64 noundef %2, i64 noundef %3, i1 noundef zeroext false) #9
  br label %mi_heap_malloc_zero_aligned_at.exit

mi_heap_malloc_zero_aligned_at.exit:              ; preds = %4, %23, %.thread.i
  %.030.i = phi ptr [ %25, %.thread.i ], [ null, %4 ], [ %24, %23 ]
  ret ptr %.030.i
}